target datalayout = "e-m:e-p270:32:32-p271:32:32-p272:64:64-i64:64-i128:128-f80:128-n8:16:32:64-S128"
target triple = "x86_64-pc-linux-gnu"

; Function Attrs: inlinehint nounwind uwtable
define internal ptr @lean_box(i64 noundef %0) #1 {
  %2 = alloca i64, align 8
  store i64 %0, ptr %2, align 8, !tbaa !8
  %3 = load i64, ptr %2, align 8, !tbaa !8
  %4 = shl i64 %3, 1
  %5 = or i64 %4, 1
  %6 = inttoptr i64 %5 to ptr
  ret ptr %6
}

; Function Attrs: inlinehint nounwind uwtable
define internal ptr @lean_usize_to_nat(i64 noundef %0) #1 {
  %2 = alloca ptr, align 8
  %3 = alloca i64, align 8
  store i64 %0, ptr %3, align 8, !tbaa !8
  %4 = load i64, ptr %3, align 8, !tbaa !8
  %5 = icmp ule i64 %4, 9223372036854775807
  %6 = zext i1 %5 to i32
  %7 = sext i32 %6 to i64
  %8 = call i64 @llvm.expect.i64(i64 %7, i64 1)
  %9 = icmp ne i64 %8, 0
  br i1 %9, label %10, label %13

10:                                               ; preds = %1
  %11 = load i64, ptr %3, align 8, !tbaa !8
  %12 = call ptr @lean_box(i64 noundef %11)
  store ptr %12, ptr %2, align 8
  br label %16

13:                                               ; preds = %1
  %14 = load i64, ptr %3, align 8, !tbaa !8
  %15 = call ptr @lean_big_usize_to_nat(i64 noundef %14)
  store ptr %15, ptr %2, align 8
  br label %16

16:                                               ; preds = %13, %10
  %17 = load ptr, ptr %2, align 8
  ret ptr %17
}

; Function Attrs: inlinehint nounwind uwtable
define internal ptr @lean_unsigned_to_nat(i32 noundef %0) #1 {
  %2 = alloca i32, align 4
  store i32 %0, ptr %2, align 4, !tbaa !16
  %3 = load i32, ptr %2, align 4, !tbaa !16
  %4 = zext i32 %3 to i64
  %5 = call ptr @lean_usize_to_nat(i64 noundef %4)
  ret ptr %5
}

; Function Attrs: nounwind uwtable
define ptr @l_Lean_Lsp_SemanticTokenModifier_toCtorIdx(i8 noundef zeroext %0) #2 {
  %2 = alloca ptr, align 8
  %3 = alloca i8, align 1
  %4 = alloca ptr, align 8
  %5 = alloca ptr, align 8
  %6 = alloca ptr, align 8
  %7 = alloca ptr, align 8
  %8 = alloca ptr, align 8
  %9 = alloca ptr, align 8
  %10 = alloca ptr, align 8
  %11 = alloca ptr, align 8
  %12 = alloca ptr, align 8
  %13 = alloca ptr, align 8
  store i8 %0, ptr %3, align 1, !tbaa !12
  br label %14

14:                                               ; preds = %1
  %15 = load i8, ptr %3, align 1, !tbaa !12
  %16 = zext i8 %15 to i32
  switch i32 %16, label %44 [
    i32 0, label %17
    i32 1, label %20
    i32 2, label %23
    i32 3, label %26
    i32 4, label %29
    i32 5, label %32
    i32 6, label %35
    i32 7, label %38
    i32 8, label %41
  ]

17:                                               ; preds = %14
  call void @llvm.lifetime.start.p0(i64 8, ptr %4) #7
  %18 = call ptr @lean_unsigned_to_nat(i32 noundef 0)
  store ptr %18, ptr %4, align 8, !tbaa !4
  %19 = load ptr, ptr %4, align 8, !tbaa !4
  store ptr %19, ptr %2, align 8
  call void @llvm.lifetime.end.p0(i64 8, ptr %4) #7
  br label %47

20:                                               ; preds = %14
  call void @llvm.lifetime.start.p0(i64 8, ptr %5) #7
  %21 = call ptr @lean_unsigned_to_nat(i32 noundef 1)
  store ptr %21, ptr %5, align 8, !tbaa !4
  %22 = load ptr, ptr %5, align 8, !tbaa !4
  store ptr %22, ptr %2, align 8
  call void @llvm.lifetime.end.p0(i64 8, ptr %5) #7
  br label %47

23:                                               ; preds = %14
  call void @llvm.lifetime.start.p0(i64 8, ptr %6) #7
  %24 = call ptr @lean_unsigned_to_nat(i32 noundef 2)
  store ptr %24, ptr %6, align 8, !tbaa !4
  %25 = load ptr, ptr %6, align 8, !tbaa !4
  store ptr %25, ptr %2, align 8
  call void @llvm.lifetime.end.p0(i64 8, ptr %6) #7
  br label %47

26:                                               ; preds = %14
  call void @llvm.lifetime.start.p0(i64 8, ptr %7) #7
  %27 = call ptr @lean_unsigned_to_nat(i32 noundef 3)
  store ptr %27, ptr %7, align 8, !tbaa !4
  %28 = load ptr, ptr %7, align 8, !tbaa !4
  store ptr %28, ptr %2, align 8
  call void @llvm.lifetime.end.p0(i64 8, ptr %7) #7
  br label %47

29:                                               ; preds = %14
  call void @llvm.lifetime.start.p0(i64 8, ptr %8) #7
  %30 = call ptr @lean_unsigned_to_nat(i32 noundef 4)
  store ptr %30, ptr %8, align 8, !tbaa !4
  %31 = load ptr, ptr %8, align 8, !tbaa !4
  store ptr %31, ptr %2, align 8
  call void @llvm.lifetime.end.p0(i64 8, ptr %8) #7
  br label %47

32:                                               ; preds = %14
  call void @llvm.lifetime.start.p0(i64 8, ptr %9) #7
  %33 = call ptr @lean_unsigned_to_nat(i32 noundef 5)
  store ptr %33, ptr %9, align 8, !tbaa !4
  %34 = load ptr, ptr %9, align 8, !tbaa !4
  store ptr %34, ptr %2, align 8
  call void @llvm.lifetime.end.p0(i64 8, ptr %9) #7
  br label %47

35:                                               ; preds = %14
  call void @llvm.lifetime.start.p0(i64 8, ptr %10) #7
  %36 = call ptr @lean_unsigned_to_nat(i32 noundef 6)
  store ptr %36, ptr %10, align 8, !tbaa !4
  %37 = load ptr, ptr %10, align 8, !tbaa !4
  store ptr %37, ptr %2, align 8
  call void @llvm.lifetime.end.p0(i64 8, ptr %10) #7
  br label %47

38:                                               ; preds = %14
  call void @llvm.lifetime.start.p0(i64 8, ptr %11) #7
  %39 = call ptr @lean_unsigned_to_nat(i32 noundef 7)
  store ptr %39, ptr %11, align 8, !tbaa !4
  %40 = load ptr, ptr %11, align 8, !tbaa !4
  store ptr %40, ptr %2, align 8
  call void @llvm.lifetime.end.p0(i64 8, ptr %11) #7
  br label %47

41:                                               ; preds = %14
  call void @llvm.lifetime.start.p0(i64 8, ptr %12) #7
  %42 = call ptr @lean_unsigned_to_nat(i32 noundef 8)
  store ptr %42, ptr %12, align 8, !tbaa !4
  %43 = load ptr, ptr %12, align 8, !tbaa !4
  store ptr %43, ptr %2, align 8
  call void @llvm.lifetime.end.p0(i64 8, ptr %12) #7
  br label %47

44:                                               ; preds = %14
  call void @llvm.lifetime.start.p0(i64 8, ptr %13) #7
  %45 = call ptr @lean_unsigned_to_nat(i32 noundef 9)
  store ptr %45, ptr %13, align 8, !tbaa !4
  %46 = load ptr, ptr %13, align 8, !tbaa !4
  store ptr %46, ptr %2, align 8
  call void @llvm.lifetime.end.p0(i64 8, ptr %13) #7
  br label %47

47:                                               ; preds = %44, %41, %38, %35, %32, %29, %26, %23, %20, %17
  %48 = load ptr, ptr %2, align 8
  ret ptr %48
}

; Function Attrs: nounwind uwtable
define ptr @l_Lean_Lsp_SemanticTokenModifier_toNat(i8 noundef zeroext %0) #2 {
  %2 = alloca i8, align 1
  %3 = alloca ptr, align 8
  store i8 %0, ptr %2, align 1, !tbaa !12
  br label %4

4:                                                ; preds = %1
  call void @llvm.lifetime.start.p0(i64 8, ptr %3) #7
  %5 = load i8, ptr %2, align 1, !tbaa !12
  %6 = call ptr @l_Lean_Lsp_SemanticTokenModifier_toCtorIdx(i8 noundef zeroext %5)
  store ptr %6, ptr %3, align 8, !tbaa !4
  %7 = load ptr, ptr %3, align 8, !tbaa !4
  call void @llvm.lifetime.end.p0(i64 8, ptr %3) #7
  ret ptr %7
}