; Function Attrs: mustprogress nofree norecurse nosync nounwind willreturn memory(none) uwtable
define noundef nonnull ptr @l_Lean_Lsp_SemanticTokenModifier_toNat(i8 noundef zeroext %0) local_unnamed_addr #3 {
  switch i8 %0, label %10 [
    i8 0, label %l_Lean_Lsp_SemanticTokenModifier_toCtorIdx.exit
    i8 1, label %2
    i8 2, label %3
    i8 3, label %4
    i8 4, label %5
    i8 5, label %6
    i8 6, label %7
    i8 7, label %8
    i8 8, label %9
  ]

2:                                                ; preds = %1
  br label %l_Lean_Lsp_SemanticTokenModifier_toCtorIdx.exit

3:                                                ; preds = %1
  br label %l_Lean_Lsp_SemanticTokenModifier_toCtorIdx.exit

4:                                                ; preds = %1
  br label %l_Lean_Lsp_SemanticTokenModifier_toCtorIdx.exit

5:                                                ; preds = %1
  br label %l_Lean_Lsp_SemanticTokenModifier_toCtorIdx.exit

6:                                                ; preds = %1
  br label %l_Lean_Lsp_SemanticTokenModifier_toCtorIdx.exit

7:                                                ; preds = %1
  br label %l_Lean_Lsp_SemanticTokenModifier_toCtorIdx.exit

8:                                                ; preds = %1
  br label %l_Lean_Lsp_SemanticTokenModifier_toCtorIdx.exit

9:                                                ; preds = %1
  br label %l_Lean_Lsp_SemanticTokenModifier_toCtorIdx.exit

10:                                               ; preds = %1
  br label %l_Lean_Lsp_SemanticTokenModifier_toCtorIdx.exit

l_Lean_Lsp_SemanticTokenModifier_toCtorIdx.exit:  ; preds = %1, %2, %3, %4, %5, %6, %7, %8, %9, %10
  %.0.i = phi ptr [ inttoptr (i64 19 to ptr), %10 ], [ inttoptr (i64 17 to ptr), %9 ], [ inttoptr (i64 15 to ptr), %8 ], [ inttoptr (i64 13 to ptr), %7 ], [ inttoptr (i64 11 to ptr), %6 ], [ inttoptr (i64 9 to ptr), %5 ], [ inttoptr (i64 7 to ptr), %4 ], [ inttoptr (i64 5 to ptr), %3 ], [ inttoptr (i64 3 to ptr), %2 ], [ inttoptr (i64 1 to ptr), %1 ]
  ret ptr %.0.i
}